(dp1
VEOS
p2
I65
sV\u30a2
I0
sV\u30a4
I1
sV\u30a6
I2
sV\u30a8
I3
sV\u30ab
I4
sV\u30aa
I5
sV\u30ad
I6
sV\u30af
I7
sV\u30ae
I8
sV\u30b1
I9
sV\u30b0
I10
sV\u30b3
I11
sV\u30b2
I12
sV\u30b5
I13
sV\u30b4
I14
sV\u30b7
I15
sV\u30b6
I16
sV\u30b9
I17
sV\u30b8
I18
sV\u30bb
I19
sV\u30ba
I20
sV\u30bd
I21
sV\u30bc
I22
sV\u30bf
I23
sV\u30be
I24
sV\u30c1
I25
sV\u30c0
I26
sV\u30c3
I27
sV\u30c5
I28
sV\u30c4
I29
sV\u30c7
I30
sV\u30c6
I31
sV\u30c9
I32
sV\u30c8
I33
sV\u30cb
I34
sV\u30ca
I35
sV\u30cd
I36
sV\u30cf
I37
sV\u30ce
I38
sV\u30d0
I39
sV\u30d3
I40
sV\u30d2
I41
sV\u30d5
I42
sV\u30d6
I43
sV\u30d8
I44
sV\u30db
I45
sV\u30da
I46
sV\u30dc
I47
sV\u30df
I48
sV\u30de
I49
sV\u30e1
I50
sV\u30e0
I51
sV\u30e2
I52
sV\u30e5
I53
sV\u30e4
I54
sV\u30e7
I55
sV\u30e6
I56
sV\u30e9
I57
sV\u30e8
I58
sV\u30eb
I59
sV\u30ea
I60
sV\u30ed
I61
sV\u30ec
I62
sV\u30ef
I63
sV\u30f3
I64
s.